Certificate:
    Data:
        Version: 1 (0x0)
        Serial Number: 1 (0x1)
    Signature Algorithm: sha256WithRSAEncryption
        Issuer: C=CA, ST=BC, O=roooot.dev, CN=LaraJIT DDI
        Validity
            Not Before: Apr 16 22:55:31 2007 GMT
            Not After : Apr 16 22:55:31 2014 GMT
        Subject: C=CA, ST=BC, O=roooot.dev, CN=LaraJIT DDI
        Subject Public Key Info:
            Public Key Algorithm: rsaEncryption
                RSA Public-Key: (2048 bit)
                Modulus:
                    00:bb:c3:ba:4c:99:d8:71:cf:79:3d:c0:d0:43:29:
                    16:9b:12:9c:92:a3:cf:58:3c:a2:3f:1e:41:33:47:
                    8e:35:b1:98:49:11:f4:18:4a:0f:32:04:62:d6:7b:
                    38:ac:37:4e:e0:47:fc:c3:aa:c6:33:e7:e7:18:9e:
                    7f:11:7b:59:fb:af:40:09:2a:c3:71:8f:ae:10:47:
                    a8:15:c9:97:e6:9a:9d:22:2a:fa:21:bb:bb:08:2a:
                    b4:ae:fa:4c:5a:fc:55:0f:e6:b8:5b:11:d5:29:09:
                    60:1e:64:33:f0:c4:b9:27:e5:40:d5:48:d4:f1:3c:
                    6d:2c:22:75:eb:54:30:6f:18:c1:ff:f3:9a:cc:7b:
                    f2:14:97:3e:2d:37:93:e6:84:3b:c6:9e:5c:d4:77:
                    1d:1c:7c:03:62:30:5d:c5:37:cb:c9:f8:fd:e3:83:
                    08:09:7a:f7:b7:f9:13:d0:d1:91:90:87:8d:99:9c:
                    25:fa:1b:a3:ee:63:41:5e:ef:46:19:f6:d8:0c:bf:
                    a3:3c:82:ef:50:f8:c8:a9:df:ce:20:45:cb:43:5b:
                    6e:87:3f:2c:ba:4c:2d:90:a2:09:37:b0:d7:9e:8a:
                    8b:c4:83:3d:8b:a9:83:b5:1b:cb:0b:dc:b8:b8:a9:
                    d0:df:c0:69:05:69:96:ff:61:95:83:ac:5d:26:e3:
                    3b:c1
                Exponent: 65537 (0x10001)
    Signature Algorithm: sha256WithRSAEncryption
         79:14:84:02:df:52:24:31:95:9d:1b:46:3d:59:8a:c1:1b:7d:
         f7:7e:35:73:ed:af:c6:d8:38:d3:04:b9:c8:89:e3:c1:8b:23:
         fa:d2:c4:62:5e:98:7f:50:d1:e5:db:a5:67:68:af:a9:a4:24:
         53:c6:e2:56:50:4a:52:36:da:15:80:dd:bb:32:60:21:1f:a1:
         60:8b:0a:f7:44:41:ee:cb:6c:66:57:67:b5:01:48:42:c5:b3:
         85:96:85:a2:f8:2d:1a:1e:e9:63:0e:a1:e9:2e:a8:65:62:4d:
         47:af:17:21:6c:cf:fd:6c:03:a4:35:ce:ac:8b:0d:cb:f4:96:
         80:6e:e5:c1:b7:41:a0:02:64:b5:00:e0:50:f2:10:c7:7c:0b:
         0d:ab:2c:61:35:6b:8a:2a:a4:fe:f0:2f:93:b5:de:55:c4:25:
         bf:1f:09:fc:b0:22:c7:9b:c7:b3:60:3a:39:01:55:cc:05:f4:
         46:6e:12:19:72:bd:d1:3c:25:cd:75:3d:76:70:c0:3f:2f:ae:
         f3:50:ee:22:09:c0:5d:ab:85:4d:c5:b7:a8:c1:b6:fc:bf:13:
         09:23:78:17:44:ed:4f:1b:51:60:bb:53:b9:26:58:76:5e:b0:
         e9:a5:cc:4e:e4:3c:0a:40:55:2c:03:a7:d0:77:e0:06:00:ea:
         ee:4c:f9:ca
-----BEGIN CERTIFICATE-----
MIIC/jCCAeYCAQEwDQYJKoZIhvcNAQELBQAwRTELMAkGA1UEBhMCQ0ExCzAJBgNV
BAgMAkJDMRMwEQYDVQQKDApyb29vb3QuZGV2MRQwEgYDVQQDDAtMYXJhSklUIERE
STAeFw0wNzA0MTYyMjU1MzFaFw0xNDA0MTYyMjU1MzFaMEUxCzAJBgNVBAYTAkNB
MQswCQYDVQQIDAJCQzETMBEGA1UECgwKcm9vb290LmRldjEUMBIGA1UEAwwLTGFy
YUpJVCBEREkwggEiMA0GCSqGSIb3DQEBAQUAA4IBDwAwggEKAoIBAQC7w7pMmdhx
z3k9wNBDKRabEpySo89YPKI/HkEzR441sZhJEfQYSg8yBGLWezisN07gR/zDqsYz
5+cYnn8Re1n7r0AJKsNxj64QR6gVyZfmmp0iKvohu7sIKrSu+kxa/FUP5rhbEdUp
CWAeZDPwxLkn5UDVSNTxPG0sInXrVDBvGMH/85rMe/IUlz4tN5PmhDvGnlzUdx0c
fANiMF3FN8vJ+P3jgwgJeve3+RPQ0ZGQh42ZnCX6G6PuY0Fe70YZ9tgMv6M8gu9Q
+Mip384gRctDW26HPyy6TC2Qogk3sNeeiovEgz2LqYO1G8sL3Li4qdDfwGkFaZb/
YZWDrF0m4zvBAgMBAAEwDQYJKoZIhvcNAQELBQADggEBAHkUhALfUiQxlZ0bRj1Z
isEbffd+NXPtr8bYONMEuciJ48GLI/rSxGJemH9Q0eXbpWdor6mkJFPG4lZQSlI2
2hWA3bsyYCEfoWCLCvdEQe7LbGZXZ7UBSELFs4WWhaL4LRoe6WMOoekuqGViTUev
FyFsz/1sA6Q1zqyLDcv0loBu5cG3QaACZLUA4FDyEMd8Cw2rLGE1a4oqpP7wL5O1
3lXEJb8fCfywIsebx7NgOjkBVcwF9EZuEhlyvdE8Jc11PXZwwD8vrvNQ7iIJwF2r
hU3Ft6jBtvy/EwkjeBdE7U8bUWC7U7kmWHZesOmlzE7kPApAVSwDp9B34AYA6u5M
+co=
-----END CERTIFICATE-----
